; Function Attrs: mustprogress nounwind uwtable
define void @_ZN5Ipopt16FilterLSAcceptorD2Ev(ptr noundef nonnull align 8 dereferenceable(304) %0) unnamed_addr #4 align 2 personality ptr @__gxx_personality_v0 {
  store ptr getelementptr inbounds ({ [20 x ptr] }, ptr @_ZTVN5Ipopt16FilterLSAcceptorE, i64 0, i32 0, i64 2), ptr %0, align 8
  %2 = getelementptr inbounds i8, ptr %0, i64 296
  %3 = load ptr, ptr %2, align 8
  %.not.i.i = icmp eq ptr %3, null
  br i1 %.not.i.i, label %_ZN5Ipopt8SmartPtrINS_14PDSystemSolverEED2Ev.exit, label %4

4:                                                ; preds = %1
  %5 = getelementptr inbounds i8, ptr %3, i64 8
  %6 = load i32, ptr %5, align 8
  %7 = add nsw i32 %6, -1
  store i32 %7, ptr %5, align 8
  %8 = load ptr, ptr %2, align 8
  %9 = getelementptr inbounds i8, ptr %8, i64 8
  %10 = load i32, ptr %9, align 8
  %11 = icmp eq i32 %10, 0
  br i1 %11, label %12, label %_ZN5Ipopt8SmartPtrINS_14PDSystemSolverEED2Ev.exit

12:                                               ; preds = %4
  %13 = load ptr, ptr %8, align 8
  %14 = getelementptr inbounds i8, ptr %13, i64 8
  %15 = load ptr, ptr %14, align 8
  tail call void %15(ptr noundef nonnull align 8 dereferenceable(49) %8) #19
  br label %_ZN5Ipopt8SmartPtrINS_14PDSystemSolverEED2Ev.exit

_ZN5Ipopt8SmartPtrINS_14PDSystemSolverEED2Ev.exit: ; preds = %1, %4, %12
  %16 = getelementptr inbounds i8, ptr %0, i64 248
  invoke void @_ZN5Ipopt6Filter5ClearEv(ptr noundef nonnull align 8 dereferenceable(32) %16)
          to label %17 unwind label %21

17:                                               ; preds = %_ZN5Ipopt8SmartPtrINS_14PDSystemSolverEED2Ev.exit
  %18 = getelementptr inbounds i8, ptr %0, i64 256
  %19 = load ptr, ptr %18, align 8
  %.not8.i.i.i.i = icmp eq ptr %19, %18
  br i1 %.not8.i.i.i.i, label %_ZN5Ipopt6FilterD2Ev.exit, label %.lr.ph.i.i.i.i

.lr.ph.i.i.i.i:                                   ; preds = %17, %.lr.ph.i.i.i.i
  %.09.i.i.i.i = phi ptr [ %20, %.lr.ph.i.i.i.i ], [ %19, %17 ]
  %20 = load ptr, ptr %.09.i.i.i.i, align 8
  tail call void @_ZdlPv(ptr noundef %.09.i.i.i.i) #20
  %.not.i.i.i.i = icmp eq ptr %20, %18
  br i1 %.not.i.i.i.i, label %_ZN5Ipopt6FilterD2Ev.exit, label %.lr.ph.i.i.i.i, !llvm.loop !4

21:                                               ; preds = %_ZN5Ipopt8SmartPtrINS_14PDSystemSolverEED2Ev.exit
  %22 = landingpad { ptr, i32 }
          catch ptr null
  %23 = extractvalue { ptr, i32 } %22, 0
  tail call void @__clang_call_terminate(ptr %23) #21
  unreachable

_ZN5Ipopt6FilterD2Ev.exit:                        ; preds = %.lr.ph.i.i.i.i, %17
  tail call void @_ZN5Ipopt23AlgorithmStrategyObjectD2Ev(ptr noundef nonnull align 8 dereferenceable(49) %0) #19
  ret void
}